target datalayout = "e-m:e-p270:32:32-p271:32:32-p272:64:64-i64:64-i128:128-f80:128-n8:16:32:64-S128"
target triple = "x86_64-pc-linux-gnu"

%struct.AVCodecContext = type { ptr, i32, i32, ptr, i32, i32, ptr, ptr, ptr, i64, i32, i32, ptr, i32, %struct.AVRational, %struct.AVRational, %struct.AVRational, i32, i32, i32, i32, i32, %struct.AVRational, i32, i32, i32, i32, i32, i32, i32, i32, i32, i32, i32, ptr, ptr, i32, float, float, float, float, float, float, float, float, float, i32, i32, i32, i32, i32, i32, i32, i32, i32, i32, i32, i32, ptr, ptr, ptr, i32, i32, i32, i32, i32, i32, i32, i32, i32, i32, %struct.AVChannelLayout, i32, i32, i32, i32, i32, i32, i32, i32, ptr, i32, i32, i32, float, float, i32, i32, i32, i32, i32, ptr, i64, i64, float, float, i32, i32, ptr, ptr, i32, i32, i32, i32, i32, ptr, ptr, ptr, ptr, i32, i32, [8 x i64], i32, i32, i32, i32, i32, i32, i32, ptr, ptr, i32, i32, i32, i32, i32, i32, i32, i32, i32, i32, ptr, ptr, i32, i32, ptr, ptr, ptr, ptr, i32, i32, i64, i32, i32, i64, ptr, i64, ptr, i32, ptr, i32 }
%struct.AVRational = type { i32, i32 }
%struct.AVChannelLayout = type { i32, i32, %union.anon.0, ptr }
%union.anon.0 = type { i64 }
%struct.CDGraphicsContext = type { ptr, i32, i32, [16 x i8], i32 }
%struct.AVFrame = type { [8 x ptr], [8 x i32], ptr, i32, i32, i32, i32, i32, %struct.AVRational, i64, i64, %struct.AVRational, i32, ptr, i32, i32, [8 x ptr], ptr, i32, ptr, i32, i32, i32, i32, i32, i32, i32, i64, ptr, i32, ptr, ptr, i64, i64, i64, i64, ptr, %struct.AVChannelLayout, i64 }

; Function Attrs: nounwind uwtable
define internal void @cdg_decode_flush(ptr noundef %0) #1 {
  %2 = alloca ptr, align 8
  %3 = alloca ptr, align 8
  %4 = alloca i32, align 4
  %5 = alloca i32, align 4
  store ptr %0, ptr %2, align 8, !tbaa !4
  call void @llvm.lifetime.start.p0(i64 8, ptr %3) #8
  %6 = load ptr, ptr %2, align 8, !tbaa !4
  %7 = getelementptr inbounds nuw %struct.AVCodecContext, ptr %6, i32 0, i32 6
  %8 = load ptr, ptr %7, align 8, !tbaa !9
  store ptr %8, ptr %3, align 8, !tbaa !29
  %9 = load ptr, ptr %3, align 8, !tbaa !29
  %10 = getelementptr inbounds nuw %struct.CDGraphicsContext, ptr %9, i32 0, i32 0
  %11 = load ptr, ptr %10, align 8, !tbaa !31
  %12 = getelementptr inbounds nuw %struct.AVFrame, ptr %11, i32 0, i32 0
  %13 = getelementptr inbounds [8 x ptr], ptr %12, i64 0, i64 0
  %14 = load ptr, ptr %13, align 8, !tbaa !48
  %15 = icmp ne ptr %14, null
  br i1 %15, label %17, label %16

16:                                               ; preds = %1
  store i32 1, ptr %4, align 4
  br label %62

17:                                               ; preds = %1
  call void @llvm.lifetime.start.p0(i64 4, ptr %5) #8
  store i32 0, ptr %5, align 4, !tbaa !34
  br label %18

18:                                               ; preds = %46, %17
  %19 = load i32, ptr %5, align 4, !tbaa !34
  %20 = load ptr, ptr %2, align 8, !tbaa !4
  %21 = getelementptr inbounds nuw %struct.AVCodecContext, ptr %20, i32 0, i32 19
  %22 = load i32, ptr %21, align 4, !tbaa !47
  %23 = icmp slt i32 %19, %22
  br i1 %23, label %25, label %24

24:                                               ; preds = %18
  store i32 2, ptr %4, align 4
  call void @llvm.lifetime.end.p0(i64 4, ptr %5) #8
  br label %49

25:                                               ; preds = %18
  %26 = load ptr, ptr %3, align 8, !tbaa !29
  %27 = getelementptr inbounds nuw %struct.CDGraphicsContext, ptr %26, i32 0, i32 0
  %28 = load ptr, ptr %27, align 8, !tbaa !31
  %29 = getelementptr inbounds nuw %struct.AVFrame, ptr %28, i32 0, i32 0
  %30 = getelementptr inbounds [8 x ptr], ptr %29, i64 0, i64 0
  %31 = load ptr, ptr %30, align 8, !tbaa !48
  %32 = load i32, ptr %5, align 4, !tbaa !34
  %33 = load ptr, ptr %3, align 8, !tbaa !29
  %34 = getelementptr inbounds nuw %struct.CDGraphicsContext, ptr %33, i32 0, i32 0
  %35 = load ptr, ptr %34, align 8, !tbaa !31
  %36 = getelementptr inbounds nuw %struct.AVFrame, ptr %35, i32 0, i32 1
  %37 = getelementptr inbounds [8 x i32], ptr %36, i64 0, i64 0
  %38 = load i32, ptr %37, align 8, !tbaa !34
  %39 = mul nsw i32 %32, %38
  %40 = sext i32 %39 to i64
  %41 = getelementptr inbounds i8, ptr %31, i64 %40
  %42 = load ptr, ptr %2, align 8, !tbaa !4
  %43 = getelementptr inbounds nuw %struct.AVCodecContext, ptr %42, i32 0, i32 18
  %44 = load i32, ptr %43, align 8, !tbaa !49
  %45 = sext i32 %44 to i64
  call void @llvm.memset.p0.i64(ptr align 1 %41, i8 0, i64 %45, i1 false)
  br label %46

46:                                               ; preds = %25
  %47 = load i32, ptr %5, align 4, !tbaa !34
  %48 = add nsw i32 %47, 1
  store i32 %48, ptr %5, align 4, !tbaa !34
  br label %18, !llvm.loop !53

49:                                               ; preds = %24
  %50 = load ptr, ptr %2, align 8, !tbaa !4
  %51 = getelementptr inbounds nuw %struct.AVCodecContext, ptr %50, i32 0, i32 146
  %52 = load i64, ptr %51, align 8, !tbaa !54
  %53 = icmp ne i64 %52, 0
  br i1 %53, label %61, label %54

54:                                               ; preds = %49
  %55 = load ptr, ptr %3, align 8, !tbaa !29
  %56 = getelementptr inbounds nuw %struct.CDGraphicsContext, ptr %55, i32 0, i32 0
  %57 = load ptr, ptr %56, align 8, !tbaa !31
  %58 = getelementptr inbounds nuw %struct.AVFrame, ptr %57, i32 0, i32 0
  %59 = getelementptr inbounds [8 x ptr], ptr %58, i64 0, i64 1
  %60 = load ptr, ptr %59, align 8, !tbaa !48
  call void @llvm.memset.p0.i64(ptr align 1 %60, i8 0, i64 1024, i1 false)
  br label %61

61:                                               ; preds = %54, %49
  store i32 0, ptr %4, align 4
  br label %62

62:                                               ; preds = %61, %16
  call void @llvm.lifetime.end.p0(i64 8, ptr %3) #8
  %63 = load i32, ptr %4, align 4
  switch i32 %63, label %65 [
    i32 0, label %64
    i32 1, label %64
  ]

64:                                               ; preds = %62, %62
  ret void

65:                                               ; preds = %62
  unreachable
}