; Function Attrs: nofree norecurse nosync nounwind memory(readwrite, inaccessiblemem: none) uwtable
define internal void @cdg_decode_flush(ptr noundef readonly captures(none) %0) #2 {
  %2 = getelementptr inbounds nuw i8, ptr %0, i64 32
  %3 = load ptr, ptr %2, align 8, !tbaa !4
  %4 = load ptr, ptr %3, align 8, !tbaa !27
  %5 = load ptr, ptr %4, align 8, !tbaa !37
  %.not = icmp eq ptr %5, null
  br i1 %.not, label %29, label %.preheader

.preheader:                                       ; preds = %1
  %6 = getelementptr inbounds nuw i8, ptr %0, i64 116
  %7 = load i32, ptr %6, align 4, !tbaa !36
  %8 = icmp sgt i32 %7, 0
  br i1 %8, label %.lr.ph, label %._crit_edge

.lr.ph:                                           ; preds = %.preheader
  %9 = getelementptr inbounds nuw i8, ptr %0, i64 112
  br label %12

._crit_edge:                                      ; preds = %12, %.preheader
  %10 = getelementptr inbounds nuw i8, ptr %0, i64 824
  %11 = load i64, ptr %10, align 8, !tbaa !44
  %.not10 = icmp eq i64 %11, 0
  br i1 %.not10, label %25, label %29

12:                                               ; preds = %.lr.ph, %12
  %.011 = phi i32 [ 0, %.lr.ph ], [ %22, %12 ]
  %13 = load ptr, ptr %3, align 8, !tbaa !27
  %14 = load ptr, ptr %13, align 8, !tbaa !37
  %15 = getelementptr inbounds nuw i8, ptr %13, i64 64
  %16 = load i32, ptr %15, align 8, !tbaa !38
  %17 = mul nsw i32 %16, %.011
  %18 = sext i32 %17 to i64
  %19 = getelementptr inbounds i8, ptr %14, i64 %18
  %20 = load i32, ptr %9, align 8, !tbaa !39
  %21 = sext i32 %20 to i64
  tail call void @llvm.memset.p0.i64(ptr align 1 %19, i8 0, i64 %21, i1 false)
  %22 = add nuw nsw i32 %.011, 1
  %23 = load i32, ptr %6, align 4, !tbaa !36
  %24 = icmp slt i32 %22, %23
  br i1 %24, label %12, label %._crit_edge, !llvm.loop !45

25:                                               ; preds = %._crit_edge
  %26 = load ptr, ptr %3, align 8, !tbaa !27
  %27 = getelementptr inbounds nuw i8, ptr %26, i64 8
  %28 = load ptr, ptr %27, align 8, !tbaa !37
  tail call void @llvm.memset.p0.i64(ptr noundef nonnull align 1 dereferenceable(1024) %28, i8 0, i64 1024, i1 false)
  br label %29

29:                                               ; preds = %._crit_edge, %25, %1
  ret void
}